target datalayout = "e-m:e-p270:32:32-p271:32:32-p272:64:64-i64:64-i128:128-f80:128-n8:16:32:64-S128"
target triple = "x86_64-pc-linux-gnu"

%"class.gmx::ExpandedEnsembleElement" = type { %"class.gmx::ISimulatorElement", %"class.gmx::ICheckpointHelperClient", %"class.gmx::ILoggingSignallerClient", ptr, i8, i64, i32, i64, %"class.std::unique_ptr", %"class.std::__cxx11::basic_string", i8, ptr, ptr, ptr, ptr }
%"class.gmx::ISimulatorElement" = type { ptr }
%"class.gmx::ICheckpointHelperClient" = type { ptr }
%"class.gmx::ILoggingSignallerClient" = type { ptr }
%"class.std::unique_ptr" = type { %"struct.std::__uniq_ptr_data" }
%"struct.std::__uniq_ptr_data" = type { %"class.std::__uniq_ptr_impl" }
%"class.std::__uniq_ptr_impl" = type { %"class.std::tuple" }
%"class.std::tuple" = type { %"struct.std::_Tuple_impl" }
%"struct.std::_Tuple_impl" = type { %"struct.std::_Head_base.28" }
%"struct.std::_Head_base.28" = type { ptr }
%"class.std::__cxx11::basic_string" = type { %"struct.std::__cxx11::basic_string<char>::_Alloc_hider", i64, %union.anon }
%"struct.std::__cxx11::basic_string<char>::_Alloc_hider" = type { ptr }
%union.anon = type { i64, [8 x i8] }
%struct.t_commrec = type <{ i32, i32, i32, i32, ptr, ptr, i32, [4 x i8], ptr, i32, i32, %struct.gmx_nodecomm_t, %"class.std::unique_ptr.141", ptr, i32, [4 x i8] }>
%struct.gmx_nodecomm_t = type { i8, ptr, i32, ptr }
%"class.std::unique_ptr.141" = type { %"struct.std::__uniq_ptr_data.142" }
%"struct.std::__uniq_ptr_data.142" = type { %"class.std::__uniq_ptr_impl.143" }
%"class.std::__uniq_ptr_impl.143" = type { %"class.std::tuple.144" }
%"class.std::tuple.144" = type { %"struct.std::_Tuple_impl.145" }
%"struct.std::_Tuple_impl.145" = type { %"struct.std::_Head_base.148" }
%"struct.std::_Head_base.148" = type { ptr }
%"class.std::optional.8" = type { %"struct.std::_Optional_base.9" }
%"struct.std::_Optional_base.9" = type { %"struct.std::_Optional_payload.11" }
%"struct.std::_Optional_payload.11" = type { %"struct.std::_Optional_payload_base.base.14", [7 x i8] }
%"struct.std::_Optional_payload_base.base.14" = type <{ %"union.std::_Optional_payload_base<gmx::CheckpointData<CheckpointDataOperation::Read>>::_Storage", i8 }>
%"union.std::_Optional_payload_base<gmx::CheckpointData<CheckpointDataOperation::Read>>::_Storage" = type { %"class.gmx::CheckpointData.13" }
%"class.gmx::CheckpointData.13" = type { ptr }
%"struct.std::_Optional_payload_base.12" = type <{ %"union.std::_Optional_payload_base<gmx::CheckpointData<CheckpointDataOperation::Read>>::_Storage", i8, [7 x i8] }>

; Function Attrs: mustprogress nounwind uwtable
define linkonce_odr noundef nonnull align 8 dereferenceable(8) ptr @_ZNSt10_Head_baseILm0EP12df_history_tLb0EE7_M_headERKS2_(ptr noundef nonnull align 8 dereferenceable(8) %0) #1 comdat align 2 {
  %2 = alloca ptr, align 8
  store ptr %0, ptr %2, align 8
  %3 = load ptr, ptr %2, align 8
  %4 = getelementptr inbounds %"struct.std::_Head_base.28", ptr %3, i32 0, i32 0
  ret ptr %4
}

; Function Attrs: mustprogress nounwind uwtable
define linkonce_odr noundef nonnull align 8 dereferenceable(8) ptr @_ZNSt11_Tuple_implILm0EJP12df_history_tSt14default_deleteIS0_EEE7_M_headERKS4_(ptr noundef nonnull align 8 dereferenceable(8) %0) #1 comdat align 2 {
  %2 = alloca ptr, align 8
  store ptr %0, ptr %2, align 8
  %3 = load ptr, ptr %2, align 8
  %4 = call noundef nonnull align 8 dereferenceable(8) ptr @_ZNSt10_Head_baseILm0EP12df_history_tLb0EE7_M_headERKS2_(ptr noundef nonnull align 8 dereferenceable(8) %3) #15
  ret ptr %4
}

; Function Attrs: mustprogress nounwind uwtable
define linkonce_odr noundef nonnull align 8 dereferenceable(8) ptr @_ZSt12__get_helperILm0EP12df_history_tJSt14default_deleteIS0_EEERKT0_RKSt11_Tuple_implIXT_EJS4_DpT1_EE(ptr noundef nonnull align 8 dereferenceable(8) %0) #1 comdat {
  %2 = alloca ptr, align 8
  store ptr %0, ptr %2, align 8
  %3 = load ptr, ptr %2, align 8
  %4 = call noundef nonnull align 8 dereferenceable(8) ptr @_ZNSt11_Tuple_implILm0EJP12df_history_tSt14default_deleteIS0_EEE7_M_headERKS4_(ptr noundef nonnull align 8 dereferenceable(8) %3) #15
  ret ptr %4
}

; Function Attrs: mustprogress nounwind uwtable
define linkonce_odr noundef nonnull align 8 dereferenceable(8) ptr @_ZSt3getILm0EJP12df_history_tSt14default_deleteIS0_EEERKNSt13tuple_elementIXT_ESt5tupleIJDpT0_EEE4typeERKS8_(ptr noundef nonnull align 8 dereferenceable(8) %0) #1 comdat {
  %2 = alloca ptr, align 8
  store ptr %0, ptr %2, align 8
  %3 = load ptr, ptr %2, align 8
  %4 = call noundef nonnull align 8 dereferenceable(8) ptr @_ZSt12__get_helperILm0EP12df_history_tJSt14default_deleteIS0_EEERKT0_RKSt11_Tuple_implIXT_EJS4_DpT1_EE(ptr noundef nonnull align 8 dereferenceable(8) %3) #15
  ret ptr %4
}

; Function Attrs: mustprogress nounwind uwtable
define linkonce_odr noundef nonnull align 8 dereferenceable(8) ptr @_ZNSt22_Optional_payload_baseIN3gmx14CheckpointDataILNS0_23CheckpointDataOperationE0EEEE6_M_getEv(ptr noundef nonnull align 8 dereferenceable(9) %0) #1 comdat align 2 {
  %2 = alloca ptr, align 8
  store ptr %0, ptr %2, align 8
  %3 = load ptr, ptr %2, align 8
  %4 = getelementptr inbounds %"struct.std::_Optional_payload_base.12", ptr %3, i32 0, i32 0
  ret ptr %4
}

; Function Attrs: mustprogress nounwind uwtable
define linkonce_odr noundef ptr @_ZNKSt15__uniq_ptr_implI12df_history_tSt14default_deleteIS0_EE6_M_ptrEv(ptr noundef nonnull align 8 dereferenceable(8) %0) #1 comdat align 2 {
  %2 = alloca ptr, align 8
  store ptr %0, ptr %2, align 8
  %3 = load ptr, ptr %2, align 8
  %4 = getelementptr inbounds %"class.std::__uniq_ptr_impl", ptr %3, i32 0, i32 0
  %5 = call noundef nonnull align 8 dereferenceable(8) ptr @_ZSt3getILm0EJP12df_history_tSt14default_deleteIS0_EEERKNSt13tuple_elementIXT_ESt5tupleIJDpT0_EEE4typeERKS8_(ptr noundef nonnull align 8 dereferenceable(8) %4) #15
  %6 = load ptr, ptr %5, align 8
  ret ptr %6
}

; Function Attrs: mustprogress nounwind uwtable
define linkonce_odr noundef nonnull align 8 dereferenceable(8) ptr @_ZNSt19_Optional_base_implIN3gmx14CheckpointDataILNS0_23CheckpointDataOperationE0EEESt14_Optional_baseIS3_Lb1ELb1EEE6_M_getEv(ptr noundef nonnull align 1 dereferenceable(1) %0) #1 comdat align 2 {
  %2 = alloca ptr, align 8
  store ptr %0, ptr %2, align 8
  %3 = load ptr, ptr %2, align 8
  br label %4

4:                                                ; preds = %1
  br label %5

5:                                                ; preds = %4
  br label %6

6:                                                ; preds = %5
  %7 = getelementptr inbounds %"struct.std::_Optional_base.9", ptr %3, i32 0, i32 0
  %8 = call noundef nonnull align 8 dereferenceable(8) ptr @_ZNSt22_Optional_payload_baseIN3gmx14CheckpointDataILNS0_23CheckpointDataOperationE0EEEE6_M_getEv(ptr noundef nonnull align 8 dereferenceable(9) %7) #15
  ret ptr %8
}

; Function Attrs: mustprogress nounwind uwtable
define linkonce_odr noundef zeroext i1 @_ZNKSt19_Optional_base_implIN3gmx14CheckpointDataILNS0_23CheckpointDataOperationE0EEESt14_Optional_baseIS3_Lb1ELb1EEE13_M_is_engagedEv(ptr noundef nonnull align 1 dereferenceable(1) %0) #1 comdat align 2 {
  %2 = alloca ptr, align 8
  store ptr %0, ptr %2, align 8
  %3 = load ptr, ptr %2, align 8
  %4 = getelementptr inbounds %"struct.std::_Optional_base.9", ptr %3, i32 0, i32 0
  %5 = getelementptr inbounds %"struct.std::_Optional_payload_base.12", ptr %4, i32 0, i32 1
  %6 = load i8, ptr %5, align 8
  %7 = trunc i8 %6 to i1
  ret i1 %7
}

; Function Attrs: mustprogress nounwind uwtable
define linkonce_odr noundef ptr @_ZNKSt10unique_ptrI12df_history_tSt14default_deleteIS0_EE3getEv(ptr noundef nonnull align 8 dereferenceable(8) %0) #1 comdat align 2 {
  %2 = alloca ptr, align 8
  store ptr %0, ptr %2, align 8
  %3 = load ptr, ptr %2, align 8
  %4 = getelementptr inbounds %"class.std::unique_ptr", ptr %3, i32 0, i32 0
  %5 = call noundef ptr @_ZNKSt15__uniq_ptr_implI12df_history_tSt14default_deleteIS0_EE6_M_ptrEv(ptr noundef nonnull align 8 dereferenceable(8) %4) #15
  ret ptr %5
}

; Function Attrs: mustprogress nounwind uwtable
define internal noundef zeroext i1 @_ZL18haveDDAtomOrderingRK9t_commrec(ptr noundef nonnull align 8 dereferenceable(108) %0) #1 {
  %2 = alloca ptr, align 8
  store ptr %0, ptr %2, align 8
  %3 = load ptr, ptr %2, align 8
  %4 = getelementptr inbounds %struct.t_commrec, ptr %3, i32 0, i32 13
  %5 = load ptr, ptr %4, align 8
  %6 = icmp ne ptr %5, null
  ret i1 %6
}

; Function Attrs: mustprogress uwtable
define linkonce_odr noundef nonnull align 8 dereferenceable(8) ptr @_ZNRSt8optionalIN3gmx14CheckpointDataILNS0_23CheckpointDataOperationE0EEEE5valueEv(ptr noundef nonnull align 8 dereferenceable(16) %0) #0 comdat align 2 {
  %2 = alloca ptr, align 8
  store ptr %0, ptr %2, align 8
  %3 = load ptr, ptr %2, align 8
  %4 = call noundef zeroext i1 @_ZNKSt19_Optional_base_implIN3gmx14CheckpointDataILNS0_23CheckpointDataOperationE0EEESt14_Optional_baseIS3_Lb1ELb1EEE13_M_is_engagedEv(ptr noundef nonnull align 1 dereferenceable(1) %3) #15
  br i1 %4, label %5, label %7

5:                                                ; preds = %1
  %6 = call noundef nonnull align 8 dereferenceable(8) ptr @_ZNSt19_Optional_base_implIN3gmx14CheckpointDataILNS0_23CheckpointDataOperationE0EEESt14_Optional_baseIS3_Lb1ELb1EEE6_M_getEv(ptr noundef nonnull align 1 dereferenceable(1) %3) #15
  ret ptr %6

7:                                                ; preds = %1
  call void @_ZSt27__throw_bad_optional_accessv() #16
  unreachable
}

; Function Attrs: mustprogress uwtable
define void @_ZN3gmx23ExpandedEnsembleElement22restoreCheckpointStateESt8optionalINS_14CheckpointDataILNS_23CheckpointDataOperationE0EEEEPK9t_commrec(ptr noundef nonnull align 8 dereferenceable(144) %0, ptr %1, i8 %2, ptr noundef %3) unnamed_addr #0 align 2 {
  %5 = alloca %"class.std::optional.8", align 8
  %6 = alloca ptr, align 8
  %7 = alloca ptr, align 8
  %8 = getelementptr inbounds { ptr, i8 }, ptr %5, i32 0, i32 0
  store ptr %1, ptr %8, align 8
  %9 = getelementptr inbounds { ptr, i8 }, ptr %5, i32 0, i32 1
  store i8 %2, ptr %9, align 8
  store ptr %0, ptr %6, align 8
  store ptr %3, ptr %7, align 8
  %10 = load ptr, ptr %6, align 8
  %11 = load ptr, ptr %7, align 8
  %12 = getelementptr inbounds %struct.t_commrec, ptr %11, i32 0, i32 10
  %13 = load i32, ptr %12, align 4
  %14 = icmp eq i32 %13, 0
  br i1 %14, label %20, label %15

15:                                               ; preds = %4
  %16 = load ptr, ptr %7, align 8
  %17 = getelementptr inbounds %struct.t_commrec, ptr %16, i32 0, i32 9
  %18 = load i32, ptr %17, align 8
  %19 = icmp sgt i32 %18, 1
  br i1 %19, label %22, label %20

20:                                               ; preds = %15, %4
  %21 = call noundef nonnull align 8 dereferenceable(8) ptr @_ZNRSt8optionalIN3gmx14CheckpointDataILNS0_23CheckpointDataOperationE0EEEE5valueEv(ptr noundef nonnull align 8 dereferenceable(16) %5)
  call void @_ZN3gmx23ExpandedEnsembleElement16doCheckpointDataILNS_23CheckpointDataOperationE0EEEvPNS_14CheckpointDataIXT_EEE(ptr noundef nonnull align 8 dereferenceable(144) %10, ptr noundef %21)
  br label %22

22:                                               ; preds = %20, %15
  %23 = load ptr, ptr %7, align 8
  %24 = call noundef zeroext i1 @_ZL18haveDDAtomOrderingRK9t_commrec(ptr noundef nonnull align 8 dereferenceable(108) %23)
  br i1 %24, label %25, label %31

25:                                               ; preds = %22
  %26 = load ptr, ptr %7, align 8
  %27 = getelementptr inbounds %struct.t_commrec, ptr %26, i32 0, i32 13
  %28 = load ptr, ptr %27, align 8
  %29 = getelementptr inbounds %"class.gmx::ExpandedEnsembleElement", ptr %10, i32 0, i32 8
  %30 = call noundef ptr @_ZNKSt10unique_ptrI12df_history_tSt14default_deleteIS0_EE3getEv(ptr noundef nonnull align 8 dereferenceable(8) %29) #15
  call void @_Z20dd_distribute_dfhistP12gmx_domdec_tP12df_history_t(ptr noundef %28, ptr noundef %30)
  br label %31

31:                                               ; preds = %25, %22
  %32 = getelementptr inbounds %"class.gmx::ExpandedEnsembleElement", ptr %10, i32 0, i32 10
  store i8 1, ptr %32, align 8
  ret void
}