; Function Attrs: mustprogress uwtable
define void @_ZN3gmx23ExpandedEnsembleElement22restoreCheckpointStateESt8optionalINS_14CheckpointDataILNS_23CheckpointDataOperationE0EEEEPK9t_commrec(ptr noundef nonnull align 8 dereferenceable(144) %0, ptr %1, i8 %2, ptr nocapture noundef readonly %3) unnamed_addr #0 align 2 {
  %5 = alloca %"class.std::optional.8", align 8
  store ptr %1, ptr %5, align 8
  %6 = getelementptr inbounds i8, ptr %5, i64 8
  store i8 %2, ptr %6, align 8
  %7 = getelementptr inbounds i8, ptr %3, i64 52
  %8 = load i32, ptr %7, align 4
  %9 = icmp eq i32 %8, 0
  br i1 %9, label %14, label %10

10:                                               ; preds = %4
  %11 = getelementptr inbounds i8, ptr %3, i64 48
  %12 = load i32, ptr %11, align 8
  %13 = icmp sgt i32 %12, 1
  br i1 %13, label %17, label %14

14:                                               ; preds = %10, %4
  %15 = trunc i8 %2 to i1
  br i1 %15, label %_ZNRSt8optionalIN3gmx14CheckpointDataILNS0_23CheckpointDataOperationE0EEEE5valueEv.exit, label %16

16:                                               ; preds = %14
  tail call void @_ZSt27__throw_bad_optional_accessv() #23
  unreachable

_ZNRSt8optionalIN3gmx14CheckpointDataILNS0_23CheckpointDataOperationE0EEEE5valueEv.exit: ; preds = %14
  call void @_ZN3gmx23ExpandedEnsembleElement16doCheckpointDataILNS_23CheckpointDataOperationE0EEEvPNS_14CheckpointDataIXT_EEE(ptr noundef nonnull align 8 dereferenceable(144) %0, ptr noundef nonnull %5)
  br label %17

17:                                               ; preds = %_ZNRSt8optionalIN3gmx14CheckpointDataILNS0_23CheckpointDataOperationE0EEEE5valueEv.exit, %10
  %18 = getelementptr i8, ptr %3, i64 96
  %.val = load ptr, ptr %18, align 8
  %.not = icmp eq ptr %.val, null
  br i1 %.not, label %22, label %19

19:                                               ; preds = %17
  %20 = getelementptr inbounds i8, ptr %0, i64 64
  %21 = load ptr, ptr %20, align 8
  call void @_Z20dd_distribute_dfhistP12gmx_domdec_tP12df_history_t(ptr noundef nonnull %.val, ptr noundef %21)
  br label %22

22:                                               ; preds = %19, %17
  %23 = getelementptr inbounds i8, ptr %0, i64 104
  store i8 1, ptr %23, align 8
  ret void
}